; ModuleID = 'source-C-CXX/29/1176.cpp'
source_filename = "source-C-CXX/29/1176.cpp"
target datalayout = "e-m:e-p270:32:32-p271:32:32-p272:64:64-i64:64-f80:128-n8:16:32:64-S128"
target triple = "x86_64-pc-linux-gnu"

%"class.std::ios_base::Init" = type { i8 }
%"class.std::basic_istream" = type { i32 (...)**, i64, %"class.std::basic_ios" }
%"class.std::basic_ios" = type { %"class.std::ios_base", %"class.std::basic_ostream"*, i8, i8, %"class.std::basic_streambuf"*, %"class.std::ctype"*, %"class.std::num_put"*, %"class.std::num_get"* }
%"class.std::ios_base" = type { i32 (...)**, i64, i64, i32, i32, i32, %"struct.std::ios_base::_Callback_list"*, %"struct.std::ios_base::_Words", [8 x %"struct.std::ios_base::_Words"], i32, %"struct.std::ios_base::_Words"*, %"class.std::locale" }
%"struct.std::ios_base::_Callback_list" = type { %"struct.std::ios_base::_Callback_list"*, void (i32, %"class.std::ios_base"*, i32)*, i32, i32 }
%"struct.std::ios_base::_Words" = type { i8*, i64 }
%"class.std::locale" = type { %"class.std::locale::_Impl"* }
%"class.std::locale::_Impl" = type { i32, %"class.std::locale::facet"**, i64, %"class.std::locale::facet"**, i8** }
%"class.std::locale::facet" = type <{ i32 (...)**, i32, [4 x i8] }>
%"class.std::basic_ostream" = type { i32 (...)**, %"class.std::basic_ios" }
%"class.std::basic_streambuf" = type { i32 (...)**, i8*, i8*, i8*, i8*, i8*, i8*, %"class.std::locale" }
%"class.std::ctype" = type <{ %"class.std::locale::facet.base", [4 x i8], %struct.__locale_struct*, i8, [7 x i8], i32*, i32*, i16*, i8, [256 x i8], [256 x i8], i8, [6 x i8] }>
%"class.std::locale::facet.base" = type <{ i32 (...)**, i32 }>
%struct.__locale_struct = type { [13 x %struct.__locale_data*], i16*, i32*, i32*, [13 x i8*] }
%struct.__locale_data = type opaque
%"class.std::num_put" = type { %"class.std::locale::facet.base", [4 x i8] }
%"class.std::num_get" = type { %"class.std::locale::facet.base", [4 x i8] }

@_ZStL8__ioinit = internal global %"class.std::ios_base::Init" zeroinitializer, align 1
@__dso_handle = external hidden global i8
@_ZSt3cin = external global %"class.std::basic_istream", align 8
@_ZSt4cout = external global %"class.std::basic_ostream", align 8
@llvm.global_ctors = appending global [1 x { i32, void ()*, i8* }] [{ i32, void ()*, i8* } { i32 65535, void ()* @_GLOBAL__sub_I_1176.cpp, i8* null }]

declare void @_ZNSt8ios_base4InitC1Ev(%"class.std::ios_base::Init"* nonnull align 1 dereferenceable(1)) unnamed_addr #0

; Function Attrs: nounwind
declare void @_ZNSt8ios_base4InitD1Ev(%"class.std::ios_base::Init"* nonnull align 1 dereferenceable(1)) unnamed_addr #1

; Function Attrs: nofree nounwind
declare i32 @__cxa_atexit(void (i8*)*, i8*, i8*) local_unnamed_addr #2

; Function Attrs: mustprogress norecurse sspstrong uwtable
define dso_local i32 @main() local_unnamed_addr #3 {
  %1 = alloca i32, align 4
  %2 = bitcast i32* %1 to i8*
  call void @llvm.lifetime.start.p0i8(i64 4, i8* nonnull %2) #8
  %3 = call nonnull align 8 dereferenceable(16) %"class.std::basic_istream"* @_ZNSirsERi(%"class.std::basic_istream"* nonnull align 8 dereferenceable(16) @_ZSt3cin, i32* nonnull align 4 dereferenceable(4) %1)
  %4 = load i32, i32* %1, align 4, !tbaa !5
  %5 = icmp sgt i32 %4, 0
  br i1 %5, label %6, label %70

6:                                                ; preds = %0
  %7 = icmp ult i32 %4, 8
  br i1 %7, label %49, label %8

8:                                                ; preds = %6
  %9 = and i32 %4, -8
  %10 = and i32 %4, 7
  %11 = insertelement <4 x i32> poison, i32 %4, i32 0
  %12 = shufflevector <4 x i32> %11, <4 x i32> poison, <4 x i32> zeroinitializer
  %13 = add <4 x i32> %12, <i32 0, i32 -1, i32 -2, i32 -3>
  br label %14

14:                                               ; preds = %14, %8
  %15 = phi i32 [ 0, %8 ], [ %42, %14 ]
  %16 = phi <4 x i32> [ zeroinitializer, %8 ], [ %40, %14 ]
  %17 = phi <4 x i32> [ zeroinitializer, %8 ], [ %41, %14 ]
  %18 = phi <4 x i32> [ %13, %8 ], [ %43, %14 ]
  %19 = add <4 x i32> %18, <i32 -4, i32 -4, i32 -4, i32 -4>
  %20 = urem <4 x i32> %18, <i32 7, i32 7, i32 7, i32 7>
  %21 = urem <4 x i32> %19, <i32 7, i32 7, i32 7, i32 7>
  %22 = icmp eq <4 x i32> %20, zeroinitializer
  %23 = icmp eq <4 x i32> %21, zeroinitializer
  %24 = urem <4 x i32> %18, <i32 10, i32 10, i32 10, i32 10>
  %25 = urem <4 x i32> %19, <i32 10, i32 10, i32 10, i32 10>
  %26 = icmp eq <4 x i32> %24, <i32 7, i32 7, i32 7, i32 7>
  %27 = icmp eq <4 x i32> %25, <i32 7, i32 7, i32 7, i32 7>
  %28 = or <4 x i1> %22, %26
  %29 = or <4 x i1> %23, %27
  %30 = add nsw <4 x i32> %18, <i32 -70, i32 -70, i32 -70, i32 -70>
  %31 = add <4 x i32> %18, <i32 -74, i32 -74, i32 -74, i32 -74>
  %32 = icmp ult <4 x i32> %30, <i32 10, i32 10, i32 10, i32 10>
  %33 = icmp ult <4 x i32> %31, <i32 10, i32 10, i32 10, i32 10>
  %34 = select <4 x i1> %28, <4 x i1> <i1 true, i1 true, i1 true, i1 true>, <4 x i1> %32
  %35 = select <4 x i1> %29, <4 x i1> <i1 true, i1 true, i1 true, i1 true>, <4 x i1> %33
  %36 = mul nsw <4 x i32> %18, %18
  %37 = mul nsw <4 x i32> %19, %19
  %38 = select <4 x i1> %34, <4 x i32> zeroinitializer, <4 x i32> %36
  %39 = select <4 x i1> %35, <4 x i32> zeroinitializer, <4 x i32> %37
  %40 = add <4 x i32> %38, %16
  %41 = add <4 x i32> %39, %17
  %42 = add nuw i32 %15, 8
  %43 = add <4 x i32> %18, <i32 -8, i32 -8, i32 -8, i32 -8>
  %44 = icmp eq i32 %42, %9
  br i1 %44, label %45, label %14, !llvm.loop !9

45:                                               ; preds = %14
  %46 = add <4 x i32> %41, %40
  %47 = call i32 @llvm.vector.reduce.add.v4i32(<4 x i32> %46)
  %48 = icmp eq i32 %4, %9
  br i1 %48, label %68, label %49

49:                                               ; preds = %6, %45
  %50 = phi i32 [ 0, %6 ], [ %47, %45 ]
  %51 = phi i32 [ %4, %6 ], [ %10, %45 ]
  br label %52

52:                                               ; preds = %49, %52
  %53 = phi i32 [ %65, %52 ], [ %50, %49 ]
  %54 = phi i32 [ %66, %52 ], [ %51, %49 ]
  %55 = urem i32 %54, 7
  %56 = icmp eq i32 %55, 0
  %57 = urem i32 %54, 10
  %58 = icmp eq i32 %57, 7
  %59 = or i1 %56, %58
  %60 = add nsw i32 %54, -70
  %61 = icmp ult i32 %60, 10
  %62 = select i1 %59, i1 true, i1 %61
  %63 = mul nsw i32 %54, %54
  %64 = select i1 %62, i32 0, i32 %63
  %65 = add nuw nsw i32 %64, %53
  %66 = add nsw i32 %54, -1
  %67 = icmp sgt i32 %54, 1
  br i1 %67, label %52, label %68, !llvm.loop !12

68:                                               ; preds = %52, %45
  %69 = phi i32 [ %47, %45 ], [ %65, %52 ]
  store i32 0, i32* %1, align 4, !tbaa !5
  br label %70

70:                                               ; preds = %68, %0
  %71 = phi i32 [ %69, %68 ], [ 0, %0 ]
  %72 = call nonnull align 8 dereferenceable(8) %"class.std::basic_ostream"* @_ZNSolsEi(%"class.std::basic_ostream"* nonnull align 8 dereferenceable(8) @_ZSt4cout, i32 %71)
  %73 = bitcast %"class.std::basic_ostream"* %72 to i8**
  %74 = load i8*, i8** %73, align 8, !tbaa !14
  %75 = getelementptr i8, i8* %74, i64 -24
  %76 = bitcast i8* %75 to i64*
  %77 = load i64, i64* %76, align 8
  %78 = bitcast %"class.std::basic_ostream"* %72 to i8*
  %79 = add nsw i64 %77, 240
  %80 = getelementptr inbounds i8, i8* %78, i64 %79
  %81 = bitcast i8* %80 to %"class.std::ctype"**
  %82 = load %"class.std::ctype"*, %"class.std::ctype"** %81, align 8, !tbaa !16
  %83 = icmp eq %"class.std::ctype"* %82, null
  br i1 %83, label %84, label %85

84:                                               ; preds = %70
  call void @_ZSt16__throw_bad_castv() #9
  unreachable

85:                                               ; preds = %70
  %86 = getelementptr inbounds %"class.std::ctype", %"class.std::ctype"* %82, i64 0, i32 8
  %87 = load i8, i8* %86, align 8, !tbaa !20
  %88 = icmp eq i8 %87, 0
  br i1 %88, label %92, label %89

89:                                               ; preds = %85
  %90 = getelementptr inbounds %"class.std::ctype", %"class.std::ctype"* %82, i64 0, i32 9, i64 10
  %91 = load i8, i8* %90, align 1, !tbaa !22
  br label %98

92:                                               ; preds = %85
  call void @_ZNKSt5ctypeIcE13_M_widen_initEv(%"class.std::ctype"* nonnull align 8 dereferenceable(570) %82)
  %93 = bitcast %"class.std::ctype"* %82 to i8 (%"class.std::ctype"*, i8)***
  %94 = load i8 (%"class.std::ctype"*, i8)**, i8 (%"class.std::ctype"*, i8)*** %93, align 8, !tbaa !14
  %95 = getelementptr inbounds i8 (%"class.std::ctype"*, i8)*, i8 (%"class.std::ctype"*, i8)** %94, i64 6
  %96 = load i8 (%"class.std::ctype"*, i8)*, i8 (%"class.std::ctype"*, i8)** %95, align 8
  %97 = call signext i8 %96(%"class.std::ctype"* nonnull align 8 dereferenceable(570) %82, i8 signext 10)
  br label %98

98:                                               ; preds = %89, %92
  %99 = phi i8 [ %91, %89 ], [ %97, %92 ]
  %100 = call nonnull align 8 dereferenceable(8) %"class.std::basic_ostream"* @_ZNSo3putEc(%"class.std::basic_ostream"* nonnull align 8 dereferenceable(8) %72, i8 signext %99)
  %101 = call nonnull align 8 dereferenceable(8) %"class.std::basic_ostream"* @_ZNSo5flushEv(%"class.std::basic_ostream"* nonnull align 8 dereferenceable(8) %100)
  call void @llvm.lifetime.end.p0i8(i64 4, i8* nonnull %2) #8
  ret i32 0
}

; Function Attrs: argmemonly mustprogress nofree nosync nounwind willreturn
declare void @llvm.lifetime.start.p0i8(i64 immarg, i8* nocapture) #4

declare nonnull align 8 dereferenceable(16) %"class.std::basic_istream"* @_ZNSirsERi(%"class.std::basic_istream"* nonnull align 8 dereferenceable(16), i32* nonnull align 4 dereferenceable(4)) local_unnamed_addr #0

declare nonnull align 8 dereferenceable(8) %"class.std::basic_ostream"* @_ZNSolsEi(%"class.std::basic_ostream"* nonnull align 8 dereferenceable(8), i32) local_unnamed_addr #0

; Function Attrs: argmemonly mustprogress nofree nosync nounwind willreturn
declare void @llvm.lifetime.end.p0i8(i64 immarg, i8* nocapture) #4

declare nonnull align 8 dereferenceable(8) %"class.std::basic_ostream"* @_ZNSo3putEc(%"class.std::basic_ostream"* nonnull align 8 dereferenceable(8), i8 signext) local_unnamed_addr #0

declare nonnull align 8 dereferenceable(8) %"class.std::basic_ostream"* @_ZNSo5flushEv(%"class.std::basic_ostream"* nonnull align 8 dereferenceable(8)) local_unnamed_addr #0

; Function Attrs: noreturn
declare void @_ZSt16__throw_bad_castv() local_unnamed_addr #5

declare void @_ZNKSt5ctypeIcE13_M_widen_initEv(%"class.std::ctype"* nonnull align 8 dereferenceable(570)) local_unnamed_addr #0

; Function Attrs: sspstrong uwtable
define internal void @_GLOBAL__sub_I_1176.cpp() #6 section ".text.startup" {
  tail call void @_ZNSt8ios_base4InitC1Ev(%"class.std::ios_base::Init"* nonnull align 1 dereferenceable(1) @_ZStL8__ioinit)
  %1 = tail call i32 @__cxa_atexit(void (i8*)* bitcast (void (%"class.std::ios_base::Init"*)* @_ZNSt8ios_base4InitD1Ev to void (i8*)*), i8* getelementptr inbounds (%"class.std::ios_base::Init", %"class.std::ios_base::Init"* @_ZStL8__ioinit, i64 0, i32 0), i8* nonnull @__dso_handle) #8
  ret void
}

; Function Attrs: nofree nosync nounwind readnone willreturn
declare i32 @llvm.vector.reduce.add.v4i32(<4 x i32>) #7


!llvm.module.flags = !{!0, !1, !2, !3}
!llvm.ident = !{!4}

!0 = !{i32 1, !"wchar_size", i32 4}
!1 = !{i32 7, !"PIC Level", i32 2}
!2 = !{i32 7, !"PIE Level", i32 2}
!3 = !{i32 7, !"uwtable", i32 1}
!4 = !{!"clang version 13.0.0"}
!5 = !{!6, !6, i64 0}
!6 = !{!"int", !7, i64 0}
!7 = !{!"omnipotent char", !8, i64 0}
!8 = !{!"Simple C++ TBAA"}
!9 = distinct !{!9, !10, !11}
!10 = !{!"llvm.loop.mustprogress"}
!11 = !{!"llvm.loop.isvectorized", i32 1}
!12 = distinct !{!12, !10, !13, !11}
!13 = !{!"llvm.loop.unroll.runtime.disable"}
!14 = !{!15, !15, i64 0}
!15 = !{!"vtable pointer", !8, i64 0}
!16 = !{!17, !18, i64 240}
!17 = !{!"_ZTSSt9basic_iosIcSt11char_traitsIcEE", !18, i64 216, !7, i64 224, !19, i64 225, !18, i64 232, !18, i64 240, !18, i64 248, !18, i64 256}
!18 = !{!"any pointer", !7, i64 0}
!19 = !{!"bool", !7, i64 0}
!20 = !{!21, !7, i64 56}
!21 = !{!"_ZTSSt5ctypeIcE", !18, i64 16, !19, i64 24, !18, i64 32, !18, i64 40, !18, i64 48, !7, i64 56, !7, i64 57, !7, i64 313, !7, i64 569}
!22 = !{!7, !7, i64 0}
